target datalayout = "e-m:e-p270:32:32-p271:32:32-p272:64:64-i64:64-i128:128-f80:128-n8:16:32:64-S128"
target triple = "x86_64-unknown-linux-gnu"

%"class.cvc5::internal::Minisat::lbool" = type { i8 }

; Function Attrs: mustprogress nounwind uwtable
define linkonce_odr hidden noundef zeroext i1 @_ZNK4cvc58internal7Minisat5lbooleqES2_(ptr noundef nonnull align 1 dereferenceable(1) %this, i8 %b.coerce) #4 comdat align 2 {
entry:
  %b = alloca %"class.cvc5::internal::Minisat::lbool", align 1
  %this.addr = alloca ptr, align 8
  %coerce.dive = getelementptr inbounds %"class.cvc5::internal::Minisat::lbool", ptr %b, i32 0, i32 0
  store i8 %b.coerce, ptr %coerce.dive, align 1
  store ptr %this, ptr %this.addr, align 8
  %this1 = load ptr, ptr %this.addr, align 8
  %value = getelementptr inbounds %"class.cvc5::internal::Minisat::lbool", ptr %b, i32 0, i32 0
  %0 = load i8, ptr %value, align 1
  %conv = zext i8 %0 to i32
  %and = and i32 %conv, 2
  %value2 = getelementptr inbounds %"class.cvc5::internal::Minisat::lbool", ptr %this1, i32 0, i32 0
  %1 = load i8, ptr %value2, align 1
  %conv3 = zext i8 %1 to i32
  %and4 = and i32 %conv3, 2
  %and5 = and i32 %and, %and4
  %value6 = getelementptr inbounds %"class.cvc5::internal::Minisat::lbool", ptr %b, i32 0, i32 0
  %2 = load i8, ptr %value6, align 1
  %conv7 = zext i8 %2 to i32
  %and8 = and i32 %conv7, 2
  %tobool = icmp ne i32 %and8, 0
  %lnot = xor i1 %tobool, true
  %conv9 = zext i1 %lnot to i32
  %value10 = getelementptr inbounds %"class.cvc5::internal::Minisat::lbool", ptr %this1, i32 0, i32 0
  %3 = load i8, ptr %value10, align 1
  %conv11 = zext i8 %3 to i32
  %value12 = getelementptr inbounds %"class.cvc5::internal::Minisat::lbool", ptr %b, i32 0, i32 0
  %4 = load i8, ptr %value12, align 1
  %conv13 = zext i8 %4 to i32
  %cmp = icmp eq i32 %conv11, %conv13
  %conv14 = zext i1 %cmp to i32
  %and15 = and i32 %conv9, %conv14
  %or = or i32 %and5, %and15
  %tobool16 = icmp ne i32 %or, 0
  ret i1 %tobool16
}

; Function Attrs: mustprogress nounwind uwtable
define linkonce_odr hidden void @_ZN4cvc58internal7Minisat5lboolC2Eh(ptr noundef nonnull align 1 dereferenceable(1) %this, i8 noundef zeroext %v) unnamed_addr #4 comdat align 2 {
entry:
  %this.addr = alloca ptr, align 8
  %v.addr = alloca i8, align 1
  store ptr %this, ptr %this.addr, align 8
  store i8 %v, ptr %v.addr, align 1
  %this1 = load ptr, ptr %this.addr, align 8
  %value = getelementptr inbounds %"class.cvc5::internal::Minisat::lbool", ptr %this1, i32 0, i32 0
  %0 = load i8, ptr %v.addr, align 1
  store i8 %0, ptr %value, align 1
  ret void
}

; Function Attrs: mustprogress uwtable
define hidden noundef i32 @_ZN4cvc58internal4prop16MinisatSatSolver17toSatLiteralValueENS0_7Minisat5lboolE(i8 %res.coerce) #5 align 2 {
entry:
  %retval = alloca i32, align 4
  %res = alloca %"class.cvc5::internal::Minisat::lbool", align 1
  %agg.tmp = alloca %"class.cvc5::internal::Minisat::lbool", align 1
  %agg.tmp2 = alloca %"class.cvc5::internal::Minisat::lbool", align 1
  %coerce.dive = getelementptr inbounds %"class.cvc5::internal::Minisat::lbool", ptr %res, i32 0, i32 0
  store i8 %res.coerce, ptr %coerce.dive, align 1
  call void @_ZN4cvc58internal7Minisat5lboolC2Eh(ptr noundef nonnull align 1 dereferenceable(1) %agg.tmp, i8 noundef zeroext 0)
  %coerce.dive1 = getelementptr inbounds %"class.cvc5::internal::Minisat::lbool", ptr %agg.tmp, i32 0, i32 0
  %0 = load i8, ptr %coerce.dive1, align 1
  %call = call noundef zeroext i1 @_ZNK4cvc58internal7Minisat5lbooleqES2_(ptr noundef nonnull align 1 dereferenceable(1) %res, i8 %0)
  br i1 %call, label %if.then, label %if.end

if.then:                                          ; preds = %entry
  store i32 1, ptr %retval, align 4
  br label %return

if.end:                                           ; preds = %entry
  call void @_ZN4cvc58internal7Minisat5lboolC2Eh(ptr noundef nonnull align 1 dereferenceable(1) %agg.tmp2, i8 noundef zeroext 2)
  %coerce.dive3 = getelementptr inbounds %"class.cvc5::internal::Minisat::lbool", ptr %agg.tmp2, i32 0, i32 0
  %1 = load i8, ptr %coerce.dive3, align 1
  %call4 = call noundef zeroext i1 @_ZNK4cvc58internal7Minisat5lbooleqES2_(ptr noundef nonnull align 1 dereferenceable(1) %res, i8 %1)
  br i1 %call4, label %if.then5, label %if.end6

if.then5:                                         ; preds = %if.end
  store i32 0, ptr %retval, align 4
  br label %return

if.end6:                                          ; preds = %if.end
  store i32 2, ptr %retval, align 4
  br label %return

return:                                           ; preds = %if.end6, %if.then5, %if.then
  %2 = load i32, ptr %retval, align 4
  ret i32 %2
}