; Function Attrs: mustprogress nofree norecurse nosync nounwind willreturn memory(none) uwtable
define hidden noundef i32 @_ZN4cvc58internal4prop16MinisatSatSolver17toSatLiteralValueENS0_7Minisat5lboolE(i8 %res.coerce) local_unnamed_addr #10 align 2 {
entry:
  %cmp.i = icmp eq i8 %res.coerce, 0
  %and53.i1 = and i8 %res.coerce, 2
  %0 = xor i8 %and53.i1, 2
  %narrow = select i1 %cmp.i, i8 1, i8 %0
  %retval.0 = zext nneg i8 %narrow to i32
  ret i32 %retval.0
}